; Function Attrs: nounwind uwtable
define range(i32 0, 2) i32 @tls_close_construct_packet(ptr noundef writeonly captures(none) %0, ptr noundef %1, i32 noundef %2) local_unnamed_addr #0 {
  %4 = alloca i64, align 8
  call void @llvm.lifetime.start.p0(i64 8, ptr nonnull %4) #11
  %.not = icmp eq i32 %2, 257
  br i1 %.not, label %7, label %5

5:                                                ; preds = %3
  %6 = tail call i32 @WPACKET_close(ptr noundef %1) #11
  %.not7 = icmp eq i32 %6, 0
  br i1 %.not7, label %15, label %7

7:                                                ; preds = %5, %3
  %8 = call i32 @WPACKET_get_length(ptr noundef %1, ptr noundef nonnull %4) #11
  %9 = icmp eq i32 %8, 0
  %10 = load i64, ptr %4, align 8
  %11 = icmp ugt i64 %10, 2147483647
  %or.cond = select i1 %9, i1 true, i1 %11
  br i1 %or.cond, label %15, label %12

12:                                               ; preds = %7
  %13 = getelementptr inbounds nuw i8, ptr %0, i64 264
  store i64 %10, ptr %13, align 8, !tbaa !74
  %14 = getelementptr inbounds nuw i8, ptr %0, i64 272
  store i64 0, ptr %14, align 8, !tbaa !80
  br label %15

15:                                               ; preds = %5, %7, %12
  %.0 = phi i32 [ 1, %12 ], [ 0, %7 ], [ 0, %5 ]
  call void @llvm.lifetime.end.p0(i64 8, ptr nonnull %4) #11
  ret i32 %.0
}